target datalayout = "e-m:e-p270:32:32-p271:32:32-p272:64:64-i64:64-i128:128-f80:128-n8:16:32:64-S128"
target triple = "x86_64-unknown-linux-gnu"

%"class.icu_75::UObject" = type { ptr }
%"class.icu_75::DateFormat" = type { %"class.icu_75::Format.base", ptr, ptr, %"class.icu_75::EnumSet", i32 }
%"class.icu_75::Format.base" = type <{ %"class.icu_75::UObject", [157 x i8], [157 x i8] }>
%"class.icu_75::EnumSet" = type { i32 }
%"class.icu_75::ParsePosition" = type { %"class.icu_75::UObject", i32, i32 }

; Function Attrs: mustprogress nounwind uwtable
define linkonce_odr void @_ZN6icu_7513ParsePosition13setErrorIndexEi(ptr noundef nonnull align 8 dereferenceable(16) %this, i32 noundef %ei) #0 comdat align 2 {
entry:
  %this.addr = alloca ptr, align 8
  %ei.addr = alloca i32, align 4
  store ptr %this, ptr %this.addr, align 8
  store i32 %ei, ptr %ei.addr, align 4
  %this1 = load ptr, ptr %this.addr, align 8
  %0 = load i32, ptr %ei.addr, align 4
  %errorIndex = getelementptr inbounds %"class.icu_75::ParsePosition", ptr %this1, i32 0, i32 2
  store i32 %0, ptr %errorIndex, align 4
  ret void
}

; Function Attrs: mustprogress nounwind uwtable
define linkonce_odr void @_ZN6icu_7513ParsePosition8setIndexEi(ptr noundef nonnull align 8 dereferenceable(16) %this, i32 noundef %offset) #0 comdat align 2 {
entry:
  %this.addr = alloca ptr, align 8
  %offset.addr = alloca i32, align 4
  store ptr %this, ptr %this.addr, align 8
  store i32 %offset, ptr %offset.addr, align 4
  %this1 = load ptr, ptr %this.addr, align 8
  %0 = load i32, ptr %offset.addr, align 4
  %index = getelementptr inbounds %"class.icu_75::ParsePosition", ptr %this1, i32 0, i32 1
  store i32 %0, ptr %index, align 8
  ret void
}

; Function Attrs: mustprogress nounwind uwtable
define internal noundef signext i8 @_ZL9U_FAILURE10UErrorCode(i32 noundef %code) #0 {
entry:
  %code.addr = alloca i32, align 4
  store i32 %code, ptr %code.addr, align 4
  %0 = load i32, ptr %code.addr, align 4
  %cmp = icmp sgt i32 %0, 0
  %conv = zext i1 %cmp to i8
  ret i8 %conv
}

; Function Attrs: mustprogress uwtable
define linkonce_odr noundef double @_ZNK6icu_758Calendar7getTimeER10UErrorCode(ptr noundef nonnull align 8 dereferenceable(618) %this, ptr noundef nonnull align 4 dereferenceable(4) %status) #2 comdat align 2 {
entry:
  %this.addr = alloca ptr, align 8
  %status.addr = alloca ptr, align 8
  store ptr %this, ptr %this.addr, align 8
  store ptr %status, ptr %status.addr, align 8
  %this1 = load ptr, ptr %this.addr, align 8
  %0 = load ptr, ptr %status.addr, align 8
  %call = call noundef double @_ZNK6icu_758Calendar15getTimeInMillisER10UErrorCode(ptr noundef nonnull align 8 dereferenceable(618) %this1, ptr noundef nonnull align 4 dereferenceable(4) %0)
  ret double %call
}

; Function Attrs: mustprogress nounwind uwtable
define linkonce_odr noundef i32 @_ZNK6icu_7513ParsePosition8getIndexEv(ptr noundef nonnull align 8 dereferenceable(16) %this) #0 comdat align 2 {
entry:
  %this.addr = alloca ptr, align 8
  store ptr %this, ptr %this.addr, align 8
  %this1 = load ptr, ptr %this.addr, align 8
  %index = getelementptr inbounds %"class.icu_75::ParsePosition", ptr %this1, i32 0, i32 1
  %0 = load i32, ptr %index, align 8
  ret i32 %0
}

; Function Attrs: mustprogress uwtable
define noundef double @_ZNK6icu_7510DateFormat5parseERKNS_13UnicodeStringERNS_13ParsePositionE(ptr noundef nonnull align 8 dereferenceable(352) %this, ptr noundef nonnull align 8 dereferenceable(64) %text, ptr noundef nonnull align 8 dereferenceable(16) %pos) #2 align 2 {
entry:
  %this.addr = alloca ptr, align 8
  %text.addr = alloca ptr, align 8
  %pos.addr = alloca ptr, align 8
  %d = alloca double, align 8
  %calClone = alloca ptr, align 8
  %start = alloca i32, align 4
  %ec = alloca i32, align 4
  store ptr %this, ptr %this.addr, align 8
  store ptr %text, ptr %text.addr, align 8
  store ptr %pos, ptr %pos.addr, align 8
  %this1 = load ptr, ptr %this.addr, align 8
  store double 0.000000e+00, ptr %d, align 8
  %fCalendar = getelementptr inbounds %"class.icu_75::DateFormat", ptr %this1, i32 0, i32 1
  %0 = load ptr, ptr %fCalendar, align 8
  %cmp = icmp ne ptr %0, null
  br i1 %cmp, label %if.then, label %if.end18

if.then:                                          ; preds = %entry
  %fCalendar2 = getelementptr inbounds %"class.icu_75::DateFormat", ptr %this1, i32 0, i32 1
  %1 = load ptr, ptr %fCalendar2, align 8
  %vtable = load ptr, ptr %1, align 8
  %vfn = getelementptr inbounds ptr, ptr %vtable, i64 3
  %2 = load ptr, ptr %vfn, align 8
  %call = call noundef ptr %2(ptr noundef nonnull align 8 dereferenceable(618) %1)
  store ptr %call, ptr %calClone, align 8
  %3 = load ptr, ptr %calClone, align 8
  %cmp3 = icmp ne ptr %3, null
  br i1 %cmp3, label %if.then4, label %if.end17

if.then4:                                         ; preds = %if.then
  %4 = load ptr, ptr %pos.addr, align 8
  %call5 = call noundef i32 @_ZNK6icu_7513ParsePosition8getIndexEv(ptr noundef nonnull align 8 dereferenceable(16) %4)
  store i32 %call5, ptr %start, align 4
  %5 = load ptr, ptr %calClone, align 8
  call void @_ZN6icu_758Calendar5clearEv(ptr noundef nonnull align 8 dereferenceable(618) %5)
  %6 = load ptr, ptr %text.addr, align 8
  %7 = load ptr, ptr %calClone, align 8
  %8 = load ptr, ptr %pos.addr, align 8
  %vtable6 = load ptr, ptr %this1, align 8
  %vfn7 = getelementptr inbounds ptr, ptr %vtable6, i64 11
  %9 = load ptr, ptr %vfn7, align 8
  call void %9(ptr noundef nonnull align 8 dereferenceable(352) %this1, ptr noundef nonnull align 8 dereferenceable(64) %6, ptr noundef nonnull align 8 dereferenceable(618) %7, ptr noundef nonnull align 8 dereferenceable(16) %8)
  %10 = load ptr, ptr %pos.addr, align 8
  %call8 = call noundef i32 @_ZNK6icu_7513ParsePosition8getIndexEv(ptr noundef nonnull align 8 dereferenceable(16) %10)
  %11 = load i32, ptr %start, align 4
  %cmp9 = icmp ne i32 %call8, %11
  br i1 %cmp9, label %if.then10, label %if.end14

if.then10:                                        ; preds = %if.then4
  store i32 0, ptr %ec, align 4
  %12 = load ptr, ptr %calClone, align 8
  %call11 = call noundef double @_ZNK6icu_758Calendar7getTimeER10UErrorCode(ptr noundef nonnull align 8 dereferenceable(618) %12, ptr noundef nonnull align 4 dereferenceable(4) %ec)
  store double %call11, ptr %d, align 8
  %13 = load i32, ptr %ec, align 4
  %call12 = call noundef signext i8 @_ZL9U_FAILURE10UErrorCode(i32 noundef %13)
  %tobool = icmp ne i8 %call12, 0
  br i1 %tobool, label %if.then13, label %if.end

if.then13:                                        ; preds = %if.then10
  %14 = load ptr, ptr %pos.addr, align 8
  %15 = load i32, ptr %start, align 4
  call void @_ZN6icu_7513ParsePosition8setIndexEi(ptr noundef nonnull align 8 dereferenceable(16) %14, i32 noundef %15)
  %16 = load ptr, ptr %pos.addr, align 8
  %17 = load i32, ptr %start, align 4
  call void @_ZN6icu_7513ParsePosition13setErrorIndexEi(ptr noundef nonnull align 8 dereferenceable(16) %16, i32 noundef %17)
  store double 0.000000e+00, ptr %d, align 8
  br label %if.end

if.end:                                           ; preds = %if.then13, %if.then10
  br label %if.end14

if.end14:                                         ; preds = %if.end, %if.then4
  %18 = load ptr, ptr %calClone, align 8
  %isnull = icmp eq ptr %18, null
  br i1 %isnull, label %delete.end, label %delete.notnull

delete.notnull:                                   ; preds = %if.end14
  %vtable15 = load ptr, ptr %18, align 8
  %vfn16 = getelementptr inbounds ptr, ptr %vtable15, i64 1
  %19 = load ptr, ptr %vfn16, align 8
  call void %19(ptr noundef nonnull align 8 dereferenceable(618) %18) #7
  br label %delete.end

delete.end:                                       ; preds = %delete.notnull, %if.end14
  br label %if.end17

if.end17:                                         ; preds = %delete.end, %if.then
  br label %if.end18

if.end18:                                         ; preds = %if.end17, %entry
  %20 = load double, ptr %d, align 8
  ret double %20
}