; Function Attrs: mustprogress uwtable
define noundef double @_ZNK6icu_7510DateFormat5parseERKNS_13UnicodeStringERNS_13ParsePositionE(ptr noundef nonnull align 8 dereferenceable(352) %this, ptr noundef nonnull align 8 dereferenceable(64) %text, ptr noundef nonnull align 8 dereferenceable(16) %pos) local_unnamed_addr #3 align 2 {
entry:
  %ec = alloca i32, align 4
  %fCalendar = getelementptr inbounds i8, ptr %this, i64 328
  %0 = load ptr, ptr %fCalendar, align 8
  %cmp.not = icmp eq ptr %0, null
  br i1 %cmp.not, label %if.end18, label %if.then

if.then:                                          ; preds = %entry
  %vtable = load ptr, ptr %0, align 8
  %vfn = getelementptr inbounds i8, ptr %vtable, i64 24
  %1 = load ptr, ptr %vfn, align 8
  %call = tail call noundef ptr %1(ptr noundef nonnull align 8 dereferenceable(618) %0)
  %cmp3.not = icmp eq ptr %call, null
  br i1 %cmp3.not, label %if.end18, label %if.then4

if.then4:                                         ; preds = %if.then
  %index.i = getelementptr inbounds i8, ptr %pos, i64 8
  %2 = load i32, ptr %index.i, align 8
  tail call void @_ZN6icu_758Calendar5clearEv(ptr noundef nonnull align 8 dereferenceable(618) %call)
  %vtable6 = load ptr, ptr %this, align 8
  %vfn7 = getelementptr inbounds i8, ptr %vtable6, i64 88
  %3 = load ptr, ptr %vfn7, align 8
  tail call void %3(ptr noundef nonnull align 8 dereferenceable(352) %this, ptr noundef nonnull align 8 dereferenceable(64) %text, ptr noundef nonnull align 8 dereferenceable(618) %call, ptr noundef nonnull align 8 dereferenceable(16) %pos)
  %4 = load i32, ptr %index.i, align 8
  %cmp9.not = icmp eq i32 %4, %2
  br i1 %cmp9.not, label %delete.notnull, label %if.then10

if.then10:                                        ; preds = %if.then4
  store i32 0, ptr %ec, align 4
  %call.i = call noundef double @_ZNK6icu_758Calendar15getTimeInMillisER10UErrorCode(ptr noundef nonnull align 8 dereferenceable(618) %call, ptr noundef nonnull align 4 dereferenceable(4) %ec)
  %5 = load i32, ptr %ec, align 4
  %cmp.i = icmp slt i32 %5, 1
  br i1 %cmp.i, label %delete.notnull, label %if.then13

if.then13:                                        ; preds = %if.then10
  store i32 %2, ptr %index.i, align 8
  %errorIndex.i = getelementptr inbounds i8, ptr %pos, i64 12
  store i32 %2, ptr %errorIndex.i, align 4
  br label %delete.notnull

delete.notnull:                                   ; preds = %if.then4, %if.then13, %if.then10
  %d.0 = phi double [ 0.000000e+00, %if.then13 ], [ %call.i, %if.then10 ], [ 0.000000e+00, %if.then4 ]
  %vtable15 = load ptr, ptr %call, align 8
  %vfn16 = getelementptr inbounds i8, ptr %vtable15, i64 8
  %6 = load ptr, ptr %vfn16, align 8
  call void %6(ptr noundef nonnull align 8 dereferenceable(618) %call) #13
  br label %if.end18

if.end18:                                         ; preds = %if.then, %delete.notnull, %entry
  %d.1 = phi double [ %d.0, %delete.notnull ], [ 0.000000e+00, %if.then ], [ 0.000000e+00, %entry ]
  ret double %d.1
}